target datalayout = "e-m:e-p270:32:32-p271:32:32-p272:64:64-i64:64-i128:128-f80:128-n8:16:32:64-S128"
target triple = "x86_64-pc-linux-gnu"

%struct.uv_loop_s = type { ptr, i32, [2 x ptr], %union.anon.1, ptr, i32, i64, i32, [2 x ptr], [2 x ptr], ptr, i32, i32, [2 x ptr], %union.pthread_mutex_t, %struct.uv_async_s, %union.pthread_rwlock_t, ptr, [2 x ptr], [2 x ptr], [2 x ptr], [2 x ptr], [2 x ptr], ptr, %struct.uv__io_s, i32, %struct.anon, i64, i64, [2 x i32], %struct.uv__io_s, %struct.uv_signal_s, i32, %struct.uv__io_s, ptr, i32 }
%union.anon.1 = type { ptr }
%union.pthread_mutex_t = type { %struct.__pthread_mutex_s }
%struct.__pthread_mutex_s = type { i32, i32, i32, i32, i32, i16, i16, %struct.__pthread_internal_list }
%struct.__pthread_internal_list = type { ptr, ptr }
%struct.uv_async_s = type { ptr, ptr, i32, ptr, [2 x ptr], %union.anon.2, ptr, i32, ptr, [2 x ptr], i32 }
%union.anon.2 = type { [4 x ptr] }
%union.pthread_rwlock_t = type { %struct.__pthread_rwlock_arch_t }
%struct.__pthread_rwlock_arch_t = type { i32, i32, i32, i32, i32, i32, i32, i32, i8, [7 x i8], i64, i32 }
%struct.anon = type { ptr, i32 }
%struct.uv_signal_s = type { ptr, ptr, i32, ptr, [2 x ptr], %union.anon.3, ptr, i32, ptr, i32, %struct.anon.4, i32, i32 }
%union.anon.3 = type { [4 x ptr] }
%struct.anon.4 = type { ptr, ptr, ptr, i32 }
%struct.uv__io_s = type { ptr, [2 x ptr], [2 x ptr], i32, i32, i32 }
%struct.uv_stream_s = type { ptr, ptr, i32, ptr, [2 x ptr], %union.anon, ptr, i32, i64, ptr, ptr, ptr, ptr, %struct.uv__io_s, [2 x ptr], [2 x ptr], ptr, i32, i32, ptr }
%union.anon = type { [4 x ptr] }
%struct.uv__stream_queued_fds_s = type { i32, i32, [1 x i32] }

; Function Attrs: nounwind uwtable
define internal void @uv__stream_osx_interrupt_select(ptr noundef %0) #0 {
  %2 = alloca ptr, align 8
  store ptr %0, ptr %2, align 8
  ret void
}

; Function Attrs: nounwind uwtable
define dso_local i32 @uv_read_stop(ptr noundef %0) #0 {
  %2 = alloca i32, align 4
  %3 = alloca ptr, align 8
  store ptr %0, ptr %3, align 8
  %4 = load ptr, ptr %3, align 8
  %5 = getelementptr inbounds %struct.uv_stream_s, ptr %4, i32 0, i32 7
  %6 = load i32, ptr %5, align 8
  %7 = and i32 %6, 4096
  %8 = icmp ne i32 %7, 0
  br i1 %8, label %10, label %9

9:                                                ; preds = %1
  store i32 0, ptr %2, align 4
  br label %53

10:                                               ; preds = %1
  %11 = load ptr, ptr %3, align 8
  %12 = getelementptr inbounds %struct.uv_stream_s, ptr %11, i32 0, i32 7
  %13 = load i32, ptr %12, align 8
  %14 = and i32 %13, -4097
  store i32 %14, ptr %12, align 8
  %15 = load ptr, ptr %3, align 8
  %16 = getelementptr inbounds %struct.uv_stream_s, ptr %15, i32 0, i32 1
  %17 = load ptr, ptr %16, align 8
  %18 = load ptr, ptr %3, align 8
  %19 = getelementptr inbounds %struct.uv_stream_s, ptr %18, i32 0, i32 13
  call void @uv__io_stop(ptr noundef %17, ptr noundef %19, i32 noundef 1)
  br label %20

20:                                               ; preds = %10
  %21 = load ptr, ptr %3, align 8
  %22 = getelementptr inbounds %struct.uv_stream_s, ptr %21, i32 0, i32 7
  %23 = load i32, ptr %22, align 8
  %24 = and i32 %23, 4
  %25 = icmp eq i32 %24, 0
  br i1 %25, label %26, label %27

26:                                               ; preds = %20
  br label %47

27:                                               ; preds = %20
  %28 = load ptr, ptr %3, align 8
  %29 = getelementptr inbounds %struct.uv_stream_s, ptr %28, i32 0, i32 7
  %30 = load i32, ptr %29, align 8
  %31 = and i32 %30, -5
  store i32 %31, ptr %29, align 8
  %32 = load ptr, ptr %3, align 8
  %33 = getelementptr inbounds %struct.uv_stream_s, ptr %32, i32 0, i32 7
  %34 = load i32, ptr %33, align 8
  %35 = and i32 %34, 8
  %36 = icmp ne i32 %35, 0
  br i1 %36, label %37, label %46

37:                                               ; preds = %27
  br label %38

38:                                               ; preds = %37
  %39 = load ptr, ptr %3, align 8
  %40 = getelementptr inbounds %struct.uv_stream_s, ptr %39, i32 0, i32 1
  %41 = load ptr, ptr %40, align 8
  %42 = getelementptr inbounds %struct.uv_loop_s, ptr %41, i32 0, i32 1
  %43 = load i32, ptr %42, align 8
  %44 = add i32 %43, -1
  store i32 %44, ptr %42, align 8
  br label %45

45:                                               ; preds = %38
  br label %46

46:                                               ; preds = %45, %27
  br label %47

47:                                               ; preds = %46, %26
  %48 = load ptr, ptr %3, align 8
  call void @uv__stream_osx_interrupt_select(ptr noundef %48)
  %49 = load ptr, ptr %3, align 8
  %50 = getelementptr inbounds %struct.uv_stream_s, ptr %49, i32 0, i32 10
  store ptr null, ptr %50, align 8
  %51 = load ptr, ptr %3, align 8
  %52 = getelementptr inbounds %struct.uv_stream_s, ptr %51, i32 0, i32 9
  store ptr null, ptr %52, align 8
  store i32 0, ptr %2, align 4
  br label %53

53:                                               ; preds = %47, %9
  %54 = load i32, ptr %2, align 4
  ret i32 %54
}

; Function Attrs: nounwind uwtable
define dso_local void @uv__stream_close(ptr noundef %0) #0 {
  %2 = alloca ptr, align 8
  %3 = alloca i32, align 4
  %4 = alloca ptr, align 8
  store ptr %0, ptr %2, align 8
  %5 = load ptr, ptr %2, align 8
  %6 = getelementptr inbounds %struct.uv_stream_s, ptr %5, i32 0, i32 1
  %7 = load ptr, ptr %6, align 8
  %8 = load ptr, ptr %2, align 8
  %9 = getelementptr inbounds %struct.uv_stream_s, ptr %8, i32 0, i32 13
  call void @uv__io_close(ptr noundef %7, ptr noundef %9)
  %10 = load ptr, ptr %2, align 8
  %11 = call i32 @uv_read_stop(ptr noundef %10)
  br label %12

12:                                               ; preds = %1
  %13 = load ptr, ptr %2, align 8
  %14 = getelementptr inbounds %struct.uv_stream_s, ptr %13, i32 0, i32 7
  %15 = load i32, ptr %14, align 8
  %16 = and i32 %15, 4
  %17 = icmp eq i32 %16, 0
  br i1 %17, label %18, label %19

18:                                               ; preds = %12
  br label %39

19:                                               ; preds = %12
  %20 = load ptr, ptr %2, align 8
  %21 = getelementptr inbounds %struct.uv_stream_s, ptr %20, i32 0, i32 7
  %22 = load i32, ptr %21, align 8
  %23 = and i32 %22, -5
  store i32 %23, ptr %21, align 8
  %24 = load ptr, ptr %2, align 8
  %25 = getelementptr inbounds %struct.uv_stream_s, ptr %24, i32 0, i32 7
  %26 = load i32, ptr %25, align 8
  %27 = and i32 %26, 8
  %28 = icmp ne i32 %27, 0
  br i1 %28, label %29, label %38

29:                                               ; preds = %19
  br label %30

30:                                               ; preds = %29
  %31 = load ptr, ptr %2, align 8
  %32 = getelementptr inbounds %struct.uv_stream_s, ptr %31, i32 0, i32 1
  %33 = load ptr, ptr %32, align 8
  %34 = getelementptr inbounds %struct.uv_loop_s, ptr %33, i32 0, i32 1
  %35 = load i32, ptr %34, align 8
  %36 = add i32 %35, -1
  store i32 %36, ptr %34, align 8
  br label %37

37:                                               ; preds = %30
  br label %38

38:                                               ; preds = %37, %19
  br label %39

39:                                               ; preds = %38, %18
  %40 = load ptr, ptr %2, align 8
  %41 = getelementptr inbounds %struct.uv_stream_s, ptr %40, i32 0, i32 7
  %42 = load i32, ptr %41, align 8
  %43 = and i32 %42, -49153
  store i32 %43, ptr %41, align 8
  %44 = load ptr, ptr %2, align 8
  %45 = getelementptr inbounds %struct.uv_stream_s, ptr %44, i32 0, i32 13
  %46 = getelementptr inbounds %struct.uv__io_s, ptr %45, i32 0, i32 5
  %47 = load i32, ptr %46, align 8
  %48 = icmp ne i32 %47, -1
  br i1 %48, label %49, label %65

49:                                               ; preds = %39
  %50 = load ptr, ptr %2, align 8
  %51 = getelementptr inbounds %struct.uv_stream_s, ptr %50, i32 0, i32 13
  %52 = getelementptr inbounds %struct.uv__io_s, ptr %51, i32 0, i32 5
  %53 = load i32, ptr %52, align 8
  %54 = icmp sgt i32 %53, 2
  br i1 %54, label %55, label %61

55:                                               ; preds = %49
  %56 = load ptr, ptr %2, align 8
  %57 = getelementptr inbounds %struct.uv_stream_s, ptr %56, i32 0, i32 13
  %58 = getelementptr inbounds %struct.uv__io_s, ptr %57, i32 0, i32 5
  %59 = load i32, ptr %58, align 8
  %60 = call i32 @uv__close(i32 noundef %59)
  br label %61

61:                                               ; preds = %55, %49
  %62 = load ptr, ptr %2, align 8
  %63 = getelementptr inbounds %struct.uv_stream_s, ptr %62, i32 0, i32 13
  %64 = getelementptr inbounds %struct.uv__io_s, ptr %63, i32 0, i32 5
  store i32 -1, ptr %64, align 8
  br label %65

65:                                               ; preds = %61, %39
  %66 = load ptr, ptr %2, align 8
  %67 = getelementptr inbounds %struct.uv_stream_s, ptr %66, i32 0, i32 18
  %68 = load i32, ptr %67, align 4
  %69 = icmp ne i32 %68, -1
  br i1 %69, label %70, label %77

70:                                               ; preds = %65
  %71 = load ptr, ptr %2, align 8
  %72 = getelementptr inbounds %struct.uv_stream_s, ptr %71, i32 0, i32 18
  %73 = load i32, ptr %72, align 4
  %74 = call i32 @uv__close(i32 noundef %73)
  %75 = load ptr, ptr %2, align 8
  %76 = getelementptr inbounds %struct.uv_stream_s, ptr %75, i32 0, i32 18
  store i32 -1, ptr %76, align 4
  br label %77

77:                                               ; preds = %70, %65
  %78 = load ptr, ptr %2, align 8
  %79 = getelementptr inbounds %struct.uv_stream_s, ptr %78, i32 0, i32 19
  %80 = load ptr, ptr %79, align 8
  %81 = icmp ne ptr %80, null
  br i1 %81, label %82, label %109

82:                                               ; preds = %77
  %83 = load ptr, ptr %2, align 8
  %84 = getelementptr inbounds %struct.uv_stream_s, ptr %83, i32 0, i32 19
  %85 = load ptr, ptr %84, align 8
  store ptr %85, ptr %4, align 8
  store i32 0, ptr %3, align 4
  br label %86

86:                                               ; preds = %100, %82
  %87 = load i32, ptr %3, align 4
  %88 = load ptr, ptr %4, align 8
  %89 = getelementptr inbounds %struct.uv__stream_queued_fds_s, ptr %88, i32 0, i32 1
  %90 = load i32, ptr %89, align 4
  %91 = icmp ult i32 %87, %90
  br i1 %91, label %92, label %103

92:                                               ; preds = %86
  %93 = load ptr, ptr %4, align 8
  %94 = getelementptr inbounds %struct.uv__stream_queued_fds_s, ptr %93, i32 0, i32 2
  %95 = load i32, ptr %3, align 4
  %96 = zext i32 %95 to i64
  %97 = getelementptr inbounds [1 x i32], ptr %94, i64 0, i64 %96
  %98 = load i32, ptr %97, align 4
  %99 = call i32 @uv__close(i32 noundef %98)
  br label %100

100:                                              ; preds = %92
  %101 = load i32, ptr %3, align 4
  %102 = add i32 %101, 1
  store i32 %102, ptr %3, align 4
  br label %86, !llvm.loop !12

103:                                              ; preds = %86
  %104 = load ptr, ptr %2, align 8
  %105 = getelementptr inbounds %struct.uv_stream_s, ptr %104, i32 0, i32 19
  %106 = load ptr, ptr %105, align 8
  call void @uv__free(ptr noundef %106)
  %107 = load ptr, ptr %2, align 8
  %108 = getelementptr inbounds %struct.uv_stream_s, ptr %107, i32 0, i32 19
  store ptr null, ptr %108, align 8
  br label %109

109:                                              ; preds = %103, %77
  ret void
}