; Function Attrs: nounwind uwtable
define dso_local void @uv__stream_close(ptr noundef %0) local_unnamed_addr #0 {
  %2 = getelementptr inbounds nuw i8, ptr %0, i64 8
  %3 = load ptr, ptr %2, align 8
  %4 = getelementptr inbounds nuw i8, ptr %0, i64 136
  tail call void @uv__io_close(ptr noundef %3, ptr noundef nonnull %4) #12
  %5 = getelementptr inbounds nuw i8, ptr %0, i64 88
  %6 = load i32, ptr %5, align 8
  %7 = and i32 %6, 4096
  %.not.i = icmp eq i32 %7, 0
  br i1 %.not.i, label %uv_read_stop.exit, label %8

8:                                                ; preds = %1
  %9 = and i32 %6, -4097
  store i32 %9, ptr %5, align 8
  %10 = load ptr, ptr %2, align 8
  tail call void @uv__io_stop(ptr noundef %10, ptr noundef nonnull %4, i32 noundef 1) #12
  %11 = load i32, ptr %5, align 8
  %12 = and i32 %11, 4
  %13 = icmp eq i32 %12, 0
  br i1 %13, label %22, label %14

14:                                               ; preds = %8
  %15 = and i32 %11, -5
  store i32 %15, ptr %5, align 8
  %16 = and i32 %11, 8
  %.not11.i = icmp eq i32 %16, 0
  br i1 %.not11.i, label %22, label %17

17:                                               ; preds = %14
  %18 = load ptr, ptr %2, align 8
  %19 = getelementptr inbounds nuw i8, ptr %18, i64 8
  %20 = load i32, ptr %19, align 8
  %21 = add i32 %20, -1
  store i32 %21, ptr %19, align 8
  %.pre.pre = load i32, ptr %5, align 8
  br label %22

22:                                               ; preds = %17, %14, %8
  %.pre = phi i32 [ %.pre.pre, %17 ], [ %15, %14 ], [ %11, %8 ]
  %23 = getelementptr inbounds nuw i8, ptr %0, i64 104
  tail call void @llvm.memset.p0.i64(ptr noundef nonnull align 8 dereferenceable(16) %23, i8 0, i64 16, i1 false)
  br label %uv_read_stop.exit

uv_read_stop.exit:                                ; preds = %1, %22
  %24 = phi i32 [ %6, %1 ], [ %.pre, %22 ]
  %25 = and i32 %24, 4
  %26 = icmp eq i32 %25, 0
  br i1 %26, label %35, label %27

27:                                               ; preds = %uv_read_stop.exit
  %28 = and i32 %24, -5
  store i32 %28, ptr %5, align 8
  %29 = and i32 %24, 8
  %.not = icmp eq i32 %29, 0
  br i1 %.not, label %35, label %30

30:                                               ; preds = %27
  %31 = load ptr, ptr %2, align 8
  %32 = getelementptr inbounds nuw i8, ptr %31, i64 8
  %33 = load i32, ptr %32, align 8
  %34 = add i32 %33, -1
  store i32 %34, ptr %32, align 8
  %.pre32 = load i32, ptr %5, align 8
  br label %35

35:                                               ; preds = %27, %30, %uv_read_stop.exit
  %36 = phi i32 [ %28, %27 ], [ %.pre32, %30 ], [ %24, %uv_read_stop.exit ]
  %37 = and i32 %36, -49153
  store i32 %37, ptr %5, align 8
  %38 = getelementptr inbounds nuw i8, ptr %0, i64 184
  %39 = load i32, ptr %38, align 8
  %.not26 = icmp eq i32 %39, -1
  br i1 %.not26, label %45, label %40

40:                                               ; preds = %35
  %41 = icmp sgt i32 %39, 2
  br i1 %41, label %42, label %44

42:                                               ; preds = %40
  %43 = tail call i32 @uv__close(i32 noundef %39) #12
  br label %44

44:                                               ; preds = %42, %40
  store i32 -1, ptr %38, align 8
  br label %45

45:                                               ; preds = %44, %35
  %46 = getelementptr inbounds nuw i8, ptr %0, i64 236
  %47 = load i32, ptr %46, align 4
  %.not27 = icmp eq i32 %47, -1
  br i1 %.not27, label %50, label %48

48:                                               ; preds = %45
  %49 = tail call i32 @uv__close(i32 noundef %47) #12
  store i32 -1, ptr %46, align 4
  br label %50

50:                                               ; preds = %48, %45
  %51 = getelementptr inbounds nuw i8, ptr %0, i64 240
  %52 = load ptr, ptr %51, align 8
  %.not28 = icmp eq ptr %52, null
  br i1 %.not28, label %64, label %.preheader

.preheader:                                       ; preds = %50
  %53 = getelementptr inbounds nuw i8, ptr %52, i64 4
  %54 = load i32, ptr %53, align 4
  %.not30 = icmp eq i32 %54, 0
  br i1 %.not30, label %._crit_edge, label %.lr.ph

.lr.ph:                                           ; preds = %.preheader
  %55 = getelementptr inbounds nuw i8, ptr %52, i64 8
  br label %56

56:                                               ; preds = %.lr.ph, %56
  %indvars.iv = phi i64 [ 0, %.lr.ph ], [ %indvars.iv.next, %56 ]
  %57 = getelementptr inbounds nuw [1 x i32], ptr %55, i64 0, i64 %indvars.iv
  %58 = load i32, ptr %57, align 4
  %59 = tail call i32 @uv__close(i32 noundef %58) #12
  %indvars.iv.next = add nuw nsw i64 %indvars.iv, 1
  %60 = load i32, ptr %53, align 4
  %61 = zext i32 %60 to i64
  %62 = icmp samesign ult i64 %indvars.iv.next, %61
  br i1 %62, label %56, label %._crit_edge.loopexit, !llvm.loop !20

._crit_edge.loopexit:                             ; preds = %56
  %.pre33 = load ptr, ptr %51, align 8
  br label %._crit_edge

._crit_edge:                                      ; preds = %._crit_edge.loopexit, %.preheader
  %63 = phi ptr [ %.pre33, %._crit_edge.loopexit ], [ %52, %.preheader ]
  tail call void @uv__free(ptr noundef %63) #12
  store ptr null, ptr %51, align 8
  br label %64

64:                                               ; preds = %._crit_edge, %50
  ret void
}